; Function Attrs: nounwind uwtable
define ptr @Java_sun_nio_fs_UnixNativeDispatcher_readlink0(ptr noundef %0, ptr nocapture noundef readnone %1, i64 noundef %2) local_unnamed_addr #0 {
  %4 = alloca [4097 x i8], align 16
  %5 = inttoptr i64 %2 to ptr
  %6 = call i64 @readlink(ptr noundef %5, ptr noundef nonnull %4, i64 noundef 4097) #11
  %7 = and i64 %6, 4294967295
  %8 = icmp eq i64 %7, 4294967295
  br i1 %8, label %9, label %18

9:                                                ; preds = %3
  %10 = tail call ptr @__errno_location() #12
  %11 = load i32, ptr %10, align 4
  %12 = tail call ptr (ptr, ptr, ptr, ...) @JNU_NewObjectByName(ptr noundef %0, ptr noundef nonnull @.str.46, ptr noundef nonnull @.str.47, i32 noundef %11) #11
  %.not.i = icmp eq ptr %12, null
  br i1 %.not.i, label %throwUnixException.exit, label %13

13:                                               ; preds = %9
  %14 = load ptr, ptr %0, align 8
  %15 = getelementptr inbounds i8, ptr %14, i64 104
  %16 = load ptr, ptr %15, align 8
  %17 = tail call i32 %16(ptr noundef nonnull %0, ptr noundef nonnull %12) #11
  br label %throwUnixException.exit

18:                                               ; preds = %3
  %sext = shl i64 %6, 32
  %19 = icmp eq i64 %sext, 17596481011712
  br i1 %19, label %20, label %27

20:                                               ; preds = %18
  %21 = tail call ptr (ptr, ptr, ptr, ...) @JNU_NewObjectByName(ptr noundef %0, ptr noundef nonnull @.str.46, ptr noundef nonnull @.str.47, i32 noundef 36) #11
  %.not.i20 = icmp eq ptr %21, null
  br i1 %.not.i20, label %throwUnixException.exit, label %22

22:                                               ; preds = %20
  %23 = load ptr, ptr %0, align 8
  %24 = getelementptr inbounds i8, ptr %23, i64 104
  %25 = load ptr, ptr %24, align 8
  %26 = tail call i32 %25(ptr noundef nonnull %0, ptr noundef nonnull %21) #11
  br label %throwUnixException.exit

27:                                               ; preds = %18
  %28 = ashr exact i64 %sext, 32
  %29 = getelementptr inbounds [4097 x i8], ptr %4, i64 0, i64 %28
  store i8 0, ptr %29, align 1
  %30 = call i64 @strlen(ptr noundef nonnull dereferenceable(1) %4) #13
  %31 = trunc i64 %30 to i32
  %32 = load ptr, ptr %0, align 8
  %33 = getelementptr inbounds i8, ptr %32, i64 1408
  %34 = load ptr, ptr %33, align 8
  %35 = tail call ptr %34(ptr noundef nonnull %0, i32 noundef %31) #11
  %.not = icmp eq ptr %35, null
  br i1 %.not, label %throwUnixException.exit, label %36

36:                                               ; preds = %27
  %37 = load ptr, ptr %0, align 8
  %38 = getelementptr inbounds i8, ptr %37, i64 1664
  %39 = load ptr, ptr %38, align 8
  call void %39(ptr noundef nonnull %0, ptr noundef nonnull %35, i32 noundef 0, i32 noundef %31, ptr noundef nonnull %4) #11
  br label %throwUnixException.exit

throwUnixException.exit:                          ; preds = %22, %20, %13, %9, %36, %27
  %.0 = phi ptr [ %35, %36 ], [ null, %27 ], [ null, %9 ], [ null, %13 ], [ null, %20 ], [ null, %22 ]
  ret ptr %.0
}